ccopy_reg
_reconstructor
p0
(cgoogle.oauth2.credentials
Credentials
p1
c__builtin__
object
p2
Ntp3
Rp4
(dp5
S'_quota_project_id'
p6
NsS'_token_uri'
p7
Vhttps://oauth2.googleapis.com/token
p8
sS'_scopes'
p9
(lp10
S'https://www.googleapis.com/auth/drive'
p11
asS'_default_scopes'
p12
NsS'expiry'
p13
cdatetime
datetime
p14
(S'\x07\xe7\x08\x0e\x05+\x1b\x0c%`'
p15
tp16
Rp17
sS'token'
p18
Vya29.a0AfB_byB3qwez-33xb1Z9RDWWcK5a5h1fLM5o25PH4r-SBS569kkDMRSGpv8dOtrQAe5ysoBgQEBiCZQduwtCsYhF8sj4WrqQMmw5x6mharOq-Y4wtQ4kCiu1KHOI2I3uTVxP7uCbWvhQAvI8Zy_iJGEQ7jMvaCgYKAZQSARISFQHsvYlsGpMUiNMBjofU6ed70WFLnA0163
p19
sS'_refresh_token'
p20
V1//0gk45em1kv35NCgYIARAAGBASNwF-L9IrGq27LsTQuixXQ8LKNxgoJVFsvh4zO68d4SGHyhO6OIiKGgWCnZopTXnZuaVqq7r8Jyk
p21
sS'_client_secret'
p22
VGOCSPX-yMgCpplsBdRTw9Wz2xLdi_S2vxXG
p23
sS'_client_id'
p24
V286648143438-puipj3k2j6doqiuk0gs5a9t9lj0riubi.apps.googleusercontent.com
p25
sS'_id_token'
p26
NsS'_rapt_token'
p27
Nsb.